; Function Attrs: null_pointer_is_valid sspstrong uwtable
define hidden range(i32 0, 3) i32 @cf_write_pdml_packets(ptr noundef %0, ptr noundef %1) local_unnamed_addr #1 {
  %3 = alloca %struct.write_packet_callback_args_t, align 8
  call void @llvm.lifetime.start.p0(i64 1616, ptr nonnull %3) #23
  %4 = getelementptr inbounds nuw i8, ptr %1, i64 16
  %5 = load ptr, ptr %4, align 8
  %6 = tail call noalias ptr @fopen(ptr noundef %5, ptr noundef nonnull @.str.29)
  %7 = icmp eq ptr %6, null
  br i1 %7, label %25, label %8

8:                                                ; preds = %2
  %9 = getelementptr inbounds nuw i8, ptr %0, i64 16
  %10 = load ptr, ptr %9, align 8
  tail call void @write_pdml_preamble(ptr noundef nonnull %6, ptr noundef %10)
  %11 = tail call i32 @ferror(ptr noundef nonnull %6) #23
  %.not = icmp eq i32 %11, 0
  br i1 %.not, label %14, label %12

12:                                               ; preds = %8
  %13 = tail call i32 @fclose(ptr noundef nonnull %6)
  br label %25

14:                                               ; preds = %8
  store ptr %6, ptr %3, align 8
  %15 = getelementptr inbounds nuw i8, ptr %3, i64 472
  store ptr %1, ptr %15, align 8
  %16 = getelementptr inbounds nuw i8, ptr %3, i64 8
  %17 = load ptr, ptr %0, align 8
  call void @epan_dissect_init(ptr noundef nonnull %16, ptr noundef %17, i1 noundef zeroext true, i1 noundef zeroext true)
  %18 = getelementptr inbounds nuw i8, ptr %1, i64 32
  %19 = call fastcc i32 @process_specified_records(ptr noundef %0, ptr noundef nonnull %18, ptr noundef nonnull @.str.30, ptr noundef nonnull @.str.28, ptr noundef nonnull @write_pdml_packet, ptr noundef nonnull %3, i1 noundef zeroext true)
  call void @epan_dissect_cleanup(ptr noundef nonnull %16)
  %cond = icmp eq i32 %19, 2
  br i1 %cond, label %20, label %22

20:                                               ; preds = %14
  %21 = call i32 @fclose(ptr noundef nonnull %6)
  br label %25

22:                                               ; preds = %14
  call void @write_pdml_finale(ptr noundef nonnull %6)
  %23 = call i32 @ferror(ptr noundef nonnull %6) #23
  %.not18 = icmp eq i32 %23, 0
  %24 = call i32 @fclose(ptr noundef nonnull %6)
  %. = select i1 %.not18, i32 0, i32 2
  br label %25

25:                                               ; preds = %22, %2, %20, %12
  %.0 = phi i32 [ 2, %12 ], [ 2, %20 ], [ 1, %2 ], [ %., %22 ]
  call void @llvm.lifetime.end.p0(i64 1616, ptr nonnull %3) #23
  ret i32 %.0
}